; Function Attrs: mustprogress uwtable
define void @_ZN9grpc_core20hpack_encoder_detail7Encoder11EmitIndexedEj(ptr noundef nonnull readonly align 8 captures(none) dereferenceable(24) %0, i32 noundef %1) local_unnamed_addr #3 align 2 personality ptr @__gxx_personality_v0 {
  %3 = icmp ult i32 %1, 127
  br i1 %3, label %_ZN9grpc_core12VarintWriterILh1EEC2Em.exit.thread, label %_ZN9grpc_core12VarintWriterILh1EEC2Em.exit

_ZN9grpc_core12VarintWriterILh1EEC2Em.exit.thread: ; preds = %2
  %4 = getelementptr inbounds nuw i8, ptr %0, i64 16
  %5 = load ptr, ptr %4, align 8, !tbaa !103
  %6 = tail call noundef ptr @grpc_slice_buffer_tiny_add(ptr noundef nonnull align 8 dereferenceable(232) %5, i64 noundef 1)
  br label %14

_ZN9grpc_core12VarintWriterILh1EEC2Em.exit:       ; preds = %2
  %7 = zext i32 %1 to i64
  %8 = add nsw i64 %7, -127
  %9 = tail call noundef i64 @_ZN9grpc_core12VarintLengthEm(i64 noundef %8)
  %10 = getelementptr inbounds nuw i8, ptr %0, i64 16
  %11 = load ptr, ptr %10, align 8, !tbaa !103
  %12 = tail call noundef ptr @grpc_slice_buffer_tiny_add(ptr noundef nonnull align 8 dereferenceable(232) %11, i64 noundef %9)
  %13 = icmp eq i64 %9, 1
  br i1 %13, label %14, label %18

14:                                               ; preds = %_ZN9grpc_core12VarintWriterILh1EEC2Em.exit.thread, %_ZN9grpc_core12VarintWriterILh1EEC2Em.exit
  %15 = phi ptr [ %6, %_ZN9grpc_core12VarintWriterILh1EEC2Em.exit.thread ], [ %12, %_ZN9grpc_core12VarintWriterILh1EEC2Em.exit ]
  %16 = trunc i32 %1 to i8
  %17 = or i8 %16, -128
  store i8 %17, ptr %15, align 1, !tbaa !25
  br label %_ZNK9grpc_core12VarintWriterILh1EE5WriteEhPh.exit

18:                                               ; preds = %_ZN9grpc_core12VarintWriterILh1EEC2Em.exit
  store i8 -1, ptr %12, align 1, !tbaa !25
  %19 = getelementptr inbounds nuw i8, ptr %12, i64 1
  %20 = add i64 %9, -1
  tail call void @_ZN9grpc_core15VarintWriteTailEmPhm(i64 noundef %8, ptr noundef nonnull %19, i64 noundef %20)
  br label %_ZNK9grpc_core12VarintWriterILh1EE5WriteEhPh.exit

_ZNK9grpc_core12VarintWriterILh1EE5WriteEhPh.exit: ; preds = %14, %18
  ret void
}